#include <math.h>
#include <stdio.h>
#include <stdlib.h>
#include <string.h>

int rec[1000];
int n;
int i,res,max;
char ch;
main()
{
	n=1;
	while(1)
	{
		scanf("%c",&ch);
		if (ch==',') {n++; continue;}
		if (ch=='\n') break;
		rec[n]=rec[n]*10+ch-'0';
	}
	max=0;
	for(i=1;i<=n;i++) if (rec[i]>max) max=rec[i];
	res=0;
	for(i=1;i<=n;i++) if ((rec[i]>res)&&(rec[i]<max)) res=rec[i];
	if ((res==0)||(res==max)) printf("No");
	else printf("%d\n",res);
}